target datalayout = "e-m:e-p270:32:32-p271:32:32-p272:64:64-i64:64-i128:128-f80:128-n8:16:32:64-S128"
target triple = "x86_64-unknown-linux-gnu"

%"class.QuantLib::EvolutionDescription" = type { i64, %"class.std::vector", %"class.std::vector", %"class.std::vector.11", %"class.std::vector", %"class.std::vector.16" }
%"class.std::vector.11" = type { %"struct.std::_Vector_base.12" }
%"struct.std::_Vector_base.12" = type { %"struct.std::_Vector_base<std::pair<unsigned long, unsigned long>, std::allocator<std::pair<unsigned long, unsigned long>>>::_Vector_impl" }
%"struct.std::_Vector_base<std::pair<unsigned long, unsigned long>, std::allocator<std::pair<unsigned long, unsigned long>>>::_Vector_impl" = type { %"struct.std::_Vector_base<std::pair<unsigned long, unsigned long>, std::allocator<std::pair<unsigned long, unsigned long>>>::_Vector_impl_data" }
%"struct.std::_Vector_base<std::pair<unsigned long, unsigned long>, std::allocator<std::pair<unsigned long, unsigned long>>>::_Vector_impl_data" = type { ptr, ptr, ptr }
%"class.std::vector" = type { %"struct.std::_Vector_base" }
%"struct.std::_Vector_base" = type { %"struct.std::_Vector_base<double, std::allocator<double>>::_Vector_impl" }
%"struct.std::_Vector_base<double, std::allocator<double>>::_Vector_impl" = type { %"struct.std::_Vector_base<double, std::allocator<double>>::_Vector_impl_data" }
%"struct.std::_Vector_base<double, std::allocator<double>>::_Vector_impl_data" = type { ptr, ptr, ptr }
%"class.std::vector.16" = type { %"struct.std::_Vector_base.17" }
%"struct.std::_Vector_base.17" = type { %"struct.std::_Vector_base<unsigned long, std::allocator<unsigned long>>::_Vector_impl" }
%"struct.std::_Vector_base<unsigned long, std::allocator<unsigned long>>::_Vector_impl" = type { %"struct.std::_Vector_base<unsigned long, std::allocator<unsigned long>>::_Vector_impl_data" }
%"struct.std::_Vector_base<unsigned long, std::allocator<unsigned long>>::_Vector_impl_data" = type { ptr, ptr, ptr }
%"class.QuantLib::MarketModelPathwiseMultiProduct" = type { ptr }
%"class.std::vector.26" = type { %"struct.std::_Vector_base.27" }
%"struct.std::_Vector_base.27" = type { %"struct.std::_Vector_base<std::vector<QuantLib::MarketModelPathwiseMultiProduct::CashFlow>, std::allocator<std::vector<QuantLib::MarketModelPathwiseMultiProduct::CashFlow>>>::_Vector_impl" }
%"struct.std::_Vector_base<std::vector<QuantLib::MarketModelPathwiseMultiProduct::CashFlow>, std::allocator<std::vector<QuantLib::MarketModelPathwiseMultiProduct::CashFlow>>>::_Vector_impl" = type { %"struct.std::_Vector_base<std::vector<QuantLib::MarketModelPathwiseMultiProduct::CashFlow>, std::allocator<std::vector<QuantLib::MarketModelPathwiseMultiProduct::CashFlow>>>::_Vector_impl_data" }
%"struct.std::_Vector_base<std::vector<QuantLib::MarketModelPathwiseMultiProduct::CashFlow>, std::allocator<std::vector<QuantLib::MarketModelPathwiseMultiProduct::CashFlow>>>::_Vector_impl_data" = type { ptr, ptr, ptr }
%"class.QuantLib::CallSpecifiedPathwiseMultiProduct" = type <{ %"class.QuantLib::MarketModelPathwiseMultiProduct", %"class.QuantLib::Clone", %"class.QuantLib::Clone.2", %"class.QuantLib::Clone", %"class.QuantLib::EvolutionDescription", %"class.std::vector.21", %"class.std::vector", i64, i8, [7 x i8], %"class.std::vector.16", %"class.std::vector.26", i64, i8, [7 x i8] }>
%"class.QuantLib::Clone.2" = type { %"class.std::unique_ptr.3" }
%"class.std::unique_ptr.3" = type { %"struct.std::__uniq_ptr_data.4" }
%"struct.std::__uniq_ptr_data.4" = type { %"class.std::__uniq_ptr_impl.5" }
%"class.std::__uniq_ptr_impl.5" = type { %"class.std::tuple.6" }
%"class.std::tuple.6" = type { %"struct.std::_Tuple_impl.7" }
%"struct.std::_Tuple_impl.7" = type { %"struct.std::_Head_base.10" }
%"struct.std::_Head_base.10" = type { ptr }
%"class.QuantLib::Clone" = type { %"class.std::unique_ptr" }
%"class.std::unique_ptr" = type { %"struct.std::__uniq_ptr_data" }
%"struct.std::__uniq_ptr_data" = type { %"class.std::__uniq_ptr_impl" }
%"class.std::__uniq_ptr_impl" = type { %"class.std::tuple" }
%"class.std::tuple" = type { %"struct.std::_Tuple_impl" }
%"struct.std::_Tuple_impl" = type { %"struct.std::_Head_base.1" }
%"struct.std::_Head_base.1" = type { ptr }
%"class.std::vector.21" = type { %"struct.std::_Vector_base.22" }
%"struct.std::_Vector_base.22" = type { %"struct.std::_Vector_base<std::valarray<bool>, std::allocator<std::valarray<bool>>>::_Vector_impl" }
%"struct.std::_Vector_base<std::valarray<bool>, std::allocator<std::valarray<bool>>>::_Vector_impl" = type { %"struct.std::_Vector_base<std::valarray<bool>, std::allocator<std::valarray<bool>>>::_Vector_impl_data" }
%"struct.std::_Vector_base<std::valarray<bool>, std::allocator<std::valarray<bool>>>::_Vector_impl_data" = type { ptr, ptr, ptr }

; Function Attrs: mustprogress nounwind uwtable
define linkonce_odr noundef nonnull align 8 dereferenceable(8) ptr @_ZNSt10_Head_baseILm0EPN8QuantLib31MarketModelPathwiseMultiProductELb0EE7_M_headERKS3_(ptr noundef nonnull align 8 dereferenceable(8) %__b) #3 comdat align 2 {
entry:
  %__b.addr = alloca ptr, align 8
  store ptr %__b, ptr %__b.addr, align 8, !tbaa !3
  %0 = load ptr, ptr %__b.addr, align 8, !tbaa !3
  %_M_head_impl = getelementptr inbounds nuw %"struct.std::_Head_base.1", ptr %0, i32 0, i32 0
  ret ptr %_M_head_impl
}

; Function Attrs: mustprogress nounwind uwtable
define linkonce_odr noundef nonnull align 8 dereferenceable(8) ptr @_ZNSt11_Tuple_implILm0EJPN8QuantLib31MarketModelPathwiseMultiProductESt14default_deleteIS1_EEE7_M_headERKS5_(ptr noundef nonnull align 8 dereferenceable(8) %__t) #3 comdat align 2 {
entry:
  %__t.addr = alloca ptr, align 8
  store ptr %__t, ptr %__t.addr, align 8, !tbaa !3
  %0 = load ptr, ptr %__t.addr, align 8, !tbaa !3
  %call = call noundef nonnull align 8 dereferenceable(8) ptr @_ZNSt10_Head_baseILm0EPN8QuantLib31MarketModelPathwiseMultiProductELb0EE7_M_headERKS3_(ptr noundef nonnull align 8 dereferenceable(8) %0) #18
  ret ptr %call
}

; Function Attrs: mustprogress nounwind uwtable
define linkonce_odr noundef nonnull align 8 dereferenceable(8) ptr @_ZSt12__get_helperILm0EPN8QuantLib31MarketModelPathwiseMultiProductEJSt14default_deleteIS1_EEERKT0_RKSt11_Tuple_implIXT_EJS5_DpT1_EE(ptr noundef nonnull align 8 dereferenceable(8) %__t) #3 comdat {
entry:
  %__t.addr = alloca ptr, align 8
  store ptr %__t, ptr %__t.addr, align 8, !tbaa !3
  %0 = load ptr, ptr %__t.addr, align 8, !tbaa !3
  %call = call noundef nonnull align 8 dereferenceable(8) ptr @_ZNSt11_Tuple_implILm0EJPN8QuantLib31MarketModelPathwiseMultiProductESt14default_deleteIS1_EEE7_M_headERKS5_(ptr noundef nonnull align 8 dereferenceable(8) %0) #18
  ret ptr %call
}

; Function Attrs: mustprogress nounwind uwtable
define linkonce_odr noundef nonnull align 8 dereferenceable(8) ptr @_ZSt3getILm0EJPN8QuantLib31MarketModelPathwiseMultiProductESt14default_deleteIS1_EEERKNSt13tuple_elementIXT_ESt5tupleIJDpT0_EEE4typeERKS9_(ptr noundef nonnull align 8 dereferenceable(8) %__t) #3 comdat {
entry:
  %__t.addr = alloca ptr, align 8
  store ptr %__t, ptr %__t.addr, align 8, !tbaa !3
  %0 = load ptr, ptr %__t.addr, align 8, !tbaa !3
  %call = call noundef nonnull align 8 dereferenceable(8) ptr @_ZSt12__get_helperILm0EPN8QuantLib31MarketModelPathwiseMultiProductEJSt14default_deleteIS1_EEERKT0_RKSt11_Tuple_implIXT_EJS5_DpT1_EE(ptr noundef nonnull align 8 dereferenceable(8) %0) #18
  ret ptr %call
}

; Function Attrs: mustprogress nounwind uwtable
define linkonce_odr noundef ptr @_ZNKSt15__uniq_ptr_implIN8QuantLib31MarketModelPathwiseMultiProductESt14default_deleteIS1_EE6_M_ptrEv(ptr noundef nonnull align 8 dereferenceable(8) %this) #3 comdat align 2 {
entry:
  %this.addr = alloca ptr, align 8
  store ptr %this, ptr %this.addr, align 8, !tbaa !3
  %this1 = load ptr, ptr %this.addr, align 8
  %_M_t = getelementptr inbounds nuw %"class.std::__uniq_ptr_impl", ptr %this1, i32 0, i32 0
  %call = call noundef nonnull align 8 dereferenceable(8) ptr @_ZSt3getILm0EJPN8QuantLib31MarketModelPathwiseMultiProductESt14default_deleteIS1_EEERKNSt13tuple_elementIXT_ESt5tupleIJDpT0_EEE4typeERKS9_(ptr noundef nonnull align 8 dereferenceable(8) %_M_t) #18
  %0 = load ptr, ptr %call, align 8, !tbaa !3
  ret ptr %0
}

; Function Attrs: mustprogress nounwind uwtable
define linkonce_odr noundef ptr @_ZNKSt10unique_ptrIN8QuantLib31MarketModelPathwiseMultiProductESt14default_deleteIS1_EE3getEv(ptr noundef nonnull align 8 dereferenceable(8) %this) #3 comdat align 2 {
entry:
  %this.addr = alloca ptr, align 8
  store ptr %this, ptr %this.addr, align 8, !tbaa !3
  %this1 = load ptr, ptr %this.addr, align 8
  %_M_t = getelementptr inbounds nuw %"class.std::unique_ptr", ptr %this1, i32 0, i32 0
  %call = call noundef ptr @_ZNKSt15__uniq_ptr_implIN8QuantLib31MarketModelPathwiseMultiProductESt14default_deleteIS1_EE6_M_ptrEv(ptr noundef nonnull align 8 dereferenceable(8) %_M_t) #18
  ret ptr %call
}

; Function Attrs: inlinehint mustprogress nounwind uwtable
define linkonce_odr noundef ptr @_ZNK8QuantLib5CloneINS_31MarketModelPathwiseMultiProductEEptEv(ptr noundef nonnull align 8 dereferenceable(8) %this) #1 comdat align 2 {
entry:
  %this.addr = alloca ptr, align 8
  store ptr %this, ptr %this.addr, align 8, !tbaa !3
  %this1 = load ptr, ptr %this.addr, align 8
  %ptr_ = getelementptr inbounds nuw %"class.QuantLib::Clone", ptr %this1, i32 0, i32 0
  %call = call noundef ptr @_ZNKSt10unique_ptrIN8QuantLib31MarketModelPathwiseMultiProductESt14default_deleteIS1_EE3getEv(ptr noundef nonnull align 8 dereferenceable(8) %ptr_) #18
  ret ptr %call
}

; Function Attrs: mustprogress uwtable
define void @_ZNK8QuantLib33CallSpecifiedPathwiseMultiProduct19suggestedNumerairesEv(ptr dead_on_unwind noalias writable sret(%"class.std::vector.16") align 8 %agg.result, ptr noundef nonnull align 8 dereferenceable(281) %this) unnamed_addr #0 align 2 {
entry:
  %result.ptr = alloca ptr, align 8
  %this.addr = alloca ptr, align 8
  store ptr %agg.result, ptr %result.ptr, align 8
  store ptr %this, ptr %this.addr, align 8, !tbaa !3
  %this1 = load ptr, ptr %this.addr, align 8
  %underlying_ = getelementptr inbounds nuw %"class.QuantLib::CallSpecifiedPathwiseMultiProduct", ptr %this1, i32 0, i32 1
  %call = call noundef ptr @_ZNK8QuantLib5CloneINS_31MarketModelPathwiseMultiProductEEptEv(ptr noundef nonnull align 8 dereferenceable(8) %underlying_)
  %vtable = load ptr, ptr %call, align 8, !tbaa !7
  %vfn = getelementptr inbounds ptr, ptr %vtable, i64 2
  %0 = load ptr, ptr %vfn, align 8
  call void %0(ptr dead_on_unwind writable sret(%"class.std::vector.16") align 8 %agg.result, ptr noundef nonnull align 8 dereferenceable(8) %call)
  ret void
}